; Function Attrs: nounwind sspstrong uwtable
define internal range(i64 1, 512) i64 @pst_wstopsig(i64 noundef %0) #1 {
  %2 = tail call ptr @rb_check_typeddata(i64 noundef %0, ptr noundef nonnull @rb_process_status_type) #27
  %3 = getelementptr inbounds nuw i8, ptr %2, i64 4
  %4 = load i32, ptr %3, align 4, !tbaa !51
  %5 = and i32 %4, 255
  %6 = icmp eq i32 %5, 127
  %7 = lshr i32 %4, 7
  %8 = and i32 %7, 510
  %9 = or disjoint i32 %8, 1
  %narrow = select i1 %6, i32 %9, i32 4
  %.0 = zext nneg i32 %narrow to i64
  ret i64 %.0
}